target datalayout = "e-m:e-p270:32:32-p271:32:32-p272:64:64-i64:64-i128:128-f80:128-n8:16:32:64-S128"
target triple = "x86_64-unknown-linux-gnu"

%"class.icu_75::UObject" = type { ptr }
%"class.icu_75::FixedDecimal" = type { %"class.icu_75::IFixedDecimal", %"class.icu_75::UObject", double, i32, i64, i64, i64, i32, i8, i8, i8, i8 }
%"class.icu_75::IFixedDecimal" = type { ptr }

@_ZN6icu_7512FixedDecimalC1Edili = unnamed_addr alias void (ptr, double, i32, i64, i32), ptr @_ZN6icu_7512FixedDecimalC2Edili

; Function Attrs: mustprogress uwtable
define noundef i64 @_ZN6icu_7512FixedDecimal19getFractionalDigitsEdi(double noundef %n, i32 noundef %v) #1 align 2 {
entry:
  %retval = alloca i64, align 8
  %n.addr = alloca double, align 8
  %v.addr = alloca i32, align 4
  %fract = alloca double, align 8
  %scaled = alloca double, align 8
  store double %n, ptr %n.addr, align 8
  store i32 %v, ptr %v.addr, align 4
  %0 = load i32, ptr %v.addr, align 4
  %cmp = icmp eq i32 %0, 0
  br i1 %cmp, label %if.then, label %lor.lhs.false

lor.lhs.false:                                    ; preds = %entry
  %1 = load double, ptr %n.addr, align 8
  %2 = load double, ptr %n.addr, align 8
  %3 = call double @llvm.floor.f64(double %2)
  %cmp1 = fcmp oeq double %1, %3
  br i1 %cmp1, label %if.then, label %lor.lhs.false2

lor.lhs.false2:                                   ; preds = %lor.lhs.false
  %4 = load double, ptr %n.addr, align 8
  %call = call signext i8 @uprv_isNaN_75(double noundef %4)
  %tobool = icmp ne i8 %call, 0
  br i1 %tobool, label %if.then, label %lor.lhs.false3

lor.lhs.false3:                                   ; preds = %lor.lhs.false2
  %5 = load double, ptr %n.addr, align 8
  %call4 = call signext i8 @uprv_isPositiveInfinity_75(double noundef %5)
  %tobool5 = icmp ne i8 %call4, 0
  br i1 %tobool5, label %if.then, label %if.end

if.then:                                          ; preds = %lor.lhs.false3, %lor.lhs.false2, %lor.lhs.false, %entry
  store i64 0, ptr %retval, align 8
  br label %return

if.end:                                           ; preds = %lor.lhs.false3
  %6 = load double, ptr %n.addr, align 8
  %7 = call double @llvm.fabs.f64(double %6)
  store double %7, ptr %n.addr, align 8
  %8 = load double, ptr %n.addr, align 8
  %9 = load double, ptr %n.addr, align 8
  %10 = call double @llvm.floor.f64(double %9)
  %sub = fsub double %8, %10
  store double %sub, ptr %fract, align 8
  %11 = load i32, ptr %v.addr, align 4
  switch i32 %11, label %sw.default [
    i32 1, label %sw.bb
    i32 2, label %sw.bb6
    i32 3, label %sw.bb8
  ]

sw.bb:                                            ; preds = %if.end
  %12 = load double, ptr %fract, align 8
  %13 = call double @llvm.fmuladd.f64(double %12, double 1.000000e+01, double 5.000000e-01)
  %conv = fptosi double %13 to i64
  store i64 %conv, ptr %retval, align 8
  br label %return

sw.bb6:                                           ; preds = %if.end
  %14 = load double, ptr %fract, align 8
  %15 = call double @llvm.fmuladd.f64(double %14, double 1.000000e+02, double 5.000000e-01)
  %conv7 = fptosi double %15 to i64
  store i64 %conv7, ptr %retval, align 8
  br label %return

sw.bb8:                                           ; preds = %if.end
  %16 = load double, ptr %fract, align 8
  %17 = call double @llvm.fmuladd.f64(double %16, double 1.000000e+03, double 5.000000e-01)
  %conv9 = fptosi double %17 to i64
  store i64 %conv9, ptr %retval, align 8
  br label %return

sw.default:                                       ; preds = %if.end
  %18 = load double, ptr %fract, align 8
  %19 = load i32, ptr %v.addr, align 4
  %conv10 = sitofp i32 %19 to double
  %call11 = call double @pow(double noundef 1.000000e+01, double noundef %conv10) #13
  %20 = call double @llvm.fmuladd.f64(double %18, double %call11, double 5.000000e-01)
  %21 = call double @llvm.floor.f64(double %20)
  store double %21, ptr %scaled, align 8
  %22 = load double, ptr %scaled, align 8
  %cmp12 = fcmp oge double %22, 0x43E0000000000000
  br i1 %cmp12, label %if.then13, label %if.else

if.then13:                                        ; preds = %sw.default
  store i64 9223372036854775807, ptr %retval, align 8
  br label %return

if.else:                                          ; preds = %sw.default
  %23 = load double, ptr %scaled, align 8
  %conv14 = fptosi double %23 to i64
  store i64 %conv14, ptr %retval, align 8
  br label %return

return:                                           ; preds = %if.else, %if.then13, %sw.bb8, %sw.bb6, %sw.bb, %if.then
  %24 = load i64, ptr %retval, align 8
  ret i64 %24
}

; Function Attrs: mustprogress uwtable
define void @_ZN6icu_7512FixedDecimal18createWithExponentEdii(ptr noalias sret(%"class.icu_75::FixedDecimal") align 8 %agg.result, double noundef %n, i32 noundef %v, i32 noundef %e) #1 align 2 {
entry:
  %result.ptr = alloca ptr, align 8
  %n.addr = alloca double, align 8
  %v.addr = alloca i32, align 4
  %e.addr = alloca i32, align 4
  store ptr %agg.result, ptr %result.ptr, align 8
  store double %n, ptr %n.addr, align 8
  store i32 %v, ptr %v.addr, align 4
  store i32 %e, ptr %e.addr, align 4
  %0 = load double, ptr %n.addr, align 8
  %1 = load i32, ptr %v.addr, align 4
  %2 = load double, ptr %n.addr, align 8
  %3 = load i32, ptr %v.addr, align 4
  %call = call noundef i64 @_ZN6icu_7512FixedDecimal19getFractionalDigitsEdi(double noundef %2, i32 noundef %3)
  %4 = load i32, ptr %e.addr, align 4
  call void @_ZN6icu_7512FixedDecimalC1Edili(ptr noundef nonnull align 8 dereferenceable(64) %agg.result, double noundef %0, i32 noundef %1, i64 noundef %call, i32 noundef %4)
  ret void
}