; Function Attrs: mustprogress uwtable
define void @_ZN6icu_7512FixedDecimal18createWithExponentEdii(ptr noalias sret(%"class.icu_75::FixedDecimal") align 8 %agg.result, double noundef %n, i32 noundef %v, i32 noundef %e) local_unnamed_addr #1 align 2 {
entry:
  %cmp.i = icmp eq i32 %v, 0
  %0 = tail call double @llvm.floor.f64(double %n)
  %cmp1.i = fcmp oeq double %0, %n
  %or.cond.i = or i1 %cmp.i, %cmp1.i
  br i1 %or.cond.i, label %_ZN6icu_7512FixedDecimal19getFractionalDigitsEdi.exit, label %lor.lhs.false2.i

lor.lhs.false2.i:                                 ; preds = %entry
  %call.i = tail call signext i8 @uprv_isNaN_75(double noundef %n)
  %tobool.not.i = icmp eq i8 %call.i, 0
  br i1 %tobool.not.i, label %lor.lhs.false3.i, label %_ZN6icu_7512FixedDecimal19getFractionalDigitsEdi.exit

lor.lhs.false3.i:                                 ; preds = %lor.lhs.false2.i
  %call4.i = tail call signext i8 @uprv_isPositiveInfinity_75(double noundef %n)
  %tobool5.not.i = icmp eq i8 %call4.i, 0
  br i1 %tobool5.not.i, label %if.end.i, label %_ZN6icu_7512FixedDecimal19getFractionalDigitsEdi.exit

if.end.i:                                         ; preds = %lor.lhs.false3.i
  %1 = tail call double @llvm.fabs.f64(double %n)
  %2 = tail call double @llvm.floor.f64(double %1)
  %sub.i = fsub double %1, %2
  switch i32 %v, label %sw.default.i [
    i32 1, label %sw.bb.i
    i32 2, label %sw.bb6.i
    i32 3, label %sw.bb8.i
  ]

sw.bb.i:                                          ; preds = %if.end.i
  %3 = tail call double @llvm.fmuladd.f64(double %sub.i, double 1.000000e+01, double 5.000000e-01)
  %conv.i = fptosi double %3 to i64
  br label %_ZN6icu_7512FixedDecimal19getFractionalDigitsEdi.exit

sw.bb6.i:                                         ; preds = %if.end.i
  %4 = tail call double @llvm.fmuladd.f64(double %sub.i, double 1.000000e+02, double 5.000000e-01)
  %conv7.i = fptosi double %4 to i64
  br label %_ZN6icu_7512FixedDecimal19getFractionalDigitsEdi.exit

sw.bb8.i:                                         ; preds = %if.end.i
  %5 = tail call double @llvm.fmuladd.f64(double %sub.i, double 1.000000e+03, double 5.000000e-01)
  %conv9.i = fptosi double %5 to i64
  br label %_ZN6icu_7512FixedDecimal19getFractionalDigitsEdi.exit

sw.default.i:                                     ; preds = %if.end.i
  %conv10.i = sitofp i32 %v to double
  %__exp10.i = tail call double @__exp10(double %conv10.i)
  %6 = tail call double @llvm.fmuladd.f64(double %sub.i, double %__exp10.i, double 5.000000e-01)
  %7 = tail call double @llvm.floor.f64(double %6)
  %cmp12.i = fcmp ult double %7, 0x43E0000000000000
  br i1 %cmp12.i, label %if.else.i, label %_ZN6icu_7512FixedDecimal19getFractionalDigitsEdi.exit

if.else.i:                                        ; preds = %sw.default.i
  %conv14.i = fptosi double %7 to i64
  br label %_ZN6icu_7512FixedDecimal19getFractionalDigitsEdi.exit

_ZN6icu_7512FixedDecimal19getFractionalDigitsEdi.exit: ; preds = %entry, %lor.lhs.false2.i, %lor.lhs.false3.i, %sw.bb.i, %sw.bb6.i, %sw.bb8.i, %sw.default.i, %if.else.i
  %retval.0.i = phi i64 [ %conv14.i, %if.else.i ], [ %conv9.i, %sw.bb8.i ], [ %conv7.i, %sw.bb6.i ], [ %conv.i, %sw.bb.i ], [ 0, %lor.lhs.false3.i ], [ 0, %lor.lhs.false2.i ], [ 0, %entry ], [ 9223372036854775807, %sw.default.i ]
  tail call void @_ZN6icu_7512FixedDecimalC1Edili(ptr noundef nonnull align 8 dereferenceable(64) %agg.result, double noundef %n, i32 noundef %v, i64 noundef %retval.0.i, i32 noundef %e)
  ret void
}